; Function Attrs: nounwind uwtable
define ptr @l_Lean_Elab_Tactic_elabResetGrindAttrs___rarg___lambda__1___boxed(ptr noundef %0, ptr noundef %1, ptr noundef %2, ptr noundef %3, ptr noundef %4, ptr noundef %5, ptr noundef %6) #0 {
  %8 = tail call ptr @l_Lean_Meta_Grind_resetCasesExt___rarg(ptr noundef %5, ptr noundef %6) #5
  %9 = getelementptr inbounds nuw i8, ptr %8, i64 16
  %10 = load ptr, ptr %9, align 8, !tbaa !4
  %11 = ptrtoint ptr %10 to i64
  %12 = and i64 %11, 1
  %.not.i29 = icmp eq i64 %12, 0
  br i1 %.not.i29, label %13, label %lean_inc.exit.i

13:                                               ; preds = %7
  %.val.i.i = load i32, ptr %10, align 4, !tbaa !8
  %14 = icmp sgt i32 %.val.i.i, 0
  br i1 %14, label %15, label %17, !prof !11

15:                                               ; preds = %13
  %16 = add nuw i32 %.val.i.i, 1
  store i32 %16, ptr %10, align 4, !tbaa !8
  br label %lean_inc.exit.i

17:                                               ; preds = %13
  %.not.i8.i = icmp eq i32 %.val.i.i, 0
  br i1 %.not.i8.i, label %lean_inc.exit.i, label %18

18:                                               ; preds = %17
  tail call void @lean_inc_ref_cold(ptr noundef nonnull %10) #5
  br label %lean_inc.exit.i

lean_inc.exit.i:                                  ; preds = %18, %17, %15, %7
  %19 = ptrtoint ptr %8 to i64
  %20 = and i64 %19, 1
  %.not9.i = icmp eq i64 %20, 0
  br i1 %.not9.i, label %21, label %l_Lean_Elab_Tactic_elabResetGrindAttrs___rarg___lambda__1.exit

21:                                               ; preds = %lean_inc.exit.i
  %22 = load i32, ptr %8, align 4, !tbaa !8
  %23 = icmp sgt i32 %22, 1
  br i1 %23, label %24, label %26, !prof !11

24:                                               ; preds = %21
  %25 = add nsw i32 %22, -1
  store i32 %25, ptr %8, align 4, !tbaa !8
  br label %l_Lean_Elab_Tactic_elabResetGrindAttrs___rarg___lambda__1.exit

26:                                               ; preds = %21
  %.not.i.i = icmp eq i32 %22, 0
  br i1 %.not.i.i, label %l_Lean_Elab_Tactic_elabResetGrindAttrs___rarg___lambda__1.exit, label %27

27:                                               ; preds = %26
  tail call void @lean_dec_ref_cold(ptr noundef nonnull %8) #5
  br label %l_Lean_Elab_Tactic_elabResetGrindAttrs___rarg___lambda__1.exit

l_Lean_Elab_Tactic_elabResetGrindAttrs___rarg___lambda__1.exit: ; preds = %lean_inc.exit.i, %24, %26, %27
  %28 = tail call ptr @l_Lean_Meta_Grind_resetEMatchTheoremsExt___rarg(ptr noundef %5, ptr noundef %10) #5
  %29 = ptrtoint ptr %5 to i64
  %30 = and i64 %29, 1
  %.not = icmp eq i64 %30, 0
  br i1 %.not, label %31, label %lean_dec.exit18

31:                                               ; preds = %l_Lean_Elab_Tactic_elabResetGrindAttrs___rarg___lambda__1.exit
  %32 = load i32, ptr %5, align 4, !tbaa !8
  %33 = icmp sgt i32 %32, 1
  br i1 %33, label %34, label %36, !prof !11

34:                                               ; preds = %31
  %35 = add nsw i32 %32, -1
  store i32 %35, ptr %5, align 4, !tbaa !8
  br label %lean_dec.exit18

36:                                               ; preds = %31
  %.not.i = icmp eq i32 %32, 0
  br i1 %.not.i, label %lean_dec.exit18, label %37

37:                                               ; preds = %36
  tail call void @lean_dec_ref_cold(ptr noundef nonnull %5) #5
  br label %lean_dec.exit18

lean_dec.exit18:                                  ; preds = %37, %36, %34, %l_Lean_Elab_Tactic_elabResetGrindAttrs___rarg___lambda__1.exit
  %38 = ptrtoint ptr %4 to i64
  %39 = and i64 %38, 1
  %.not30 = icmp eq i64 %39, 0
  br i1 %.not30, label %40, label %lean_dec.exit17

40:                                               ; preds = %lean_dec.exit18
  %41 = load i32, ptr %4, align 4, !tbaa !8
  %42 = icmp sgt i32 %41, 1
  br i1 %42, label %43, label %45, !prof !11

43:                                               ; preds = %40
  %44 = add nsw i32 %41, -1
  store i32 %44, ptr %4, align 4, !tbaa !8
  br label %lean_dec.exit17

45:                                               ; preds = %40
  %.not.i19 = icmp eq i32 %41, 0
  br i1 %.not.i19, label %lean_dec.exit17, label %46

46:                                               ; preds = %45
  tail call void @lean_dec_ref_cold(ptr noundef nonnull %4) #5
  br label %lean_dec.exit17

lean_dec.exit17:                                  ; preds = %46, %45, %43, %lean_dec.exit18
  %47 = ptrtoint ptr %3 to i64
  %48 = and i64 %47, 1
  %.not31 = icmp eq i64 %48, 0
  br i1 %.not31, label %49, label %lean_dec.exit16

49:                                               ; preds = %lean_dec.exit17
  %50 = load i32, ptr %3, align 4, !tbaa !8
  %51 = icmp sgt i32 %50, 1
  br i1 %51, label %52, label %54, !prof !11

52:                                               ; preds = %49
  %53 = add nsw i32 %50, -1
  store i32 %53, ptr %3, align 4, !tbaa !8
  br label %lean_dec.exit16

54:                                               ; preds = %49
  %.not.i21 = icmp eq i32 %50, 0
  br i1 %.not.i21, label %lean_dec.exit16, label %55

55:                                               ; preds = %54
  tail call void @lean_dec_ref_cold(ptr noundef nonnull %3) #5
  br label %lean_dec.exit16

lean_dec.exit16:                                  ; preds = %55, %54, %52, %lean_dec.exit17
  %56 = ptrtoint ptr %2 to i64
  %57 = and i64 %56, 1
  %.not32 = icmp eq i64 %57, 0
  br i1 %.not32, label %58, label %lean_dec.exit15

58:                                               ; preds = %lean_dec.exit16
  %59 = load i32, ptr %2, align 4, !tbaa !8
  %60 = icmp sgt i32 %59, 1
  br i1 %60, label %61, label %63, !prof !11

61:                                               ; preds = %58
  %62 = add nsw i32 %59, -1
  store i32 %62, ptr %2, align 4, !tbaa !8
  br label %lean_dec.exit15

63:                                               ; preds = %58
  %.not.i23 = icmp eq i32 %59, 0
  br i1 %.not.i23, label %lean_dec.exit15, label %64

64:                                               ; preds = %63
  tail call void @lean_dec_ref_cold(ptr noundef nonnull %2) #5
  br label %lean_dec.exit15

lean_dec.exit15:                                  ; preds = %64, %63, %61, %lean_dec.exit16
  %65 = ptrtoint ptr %1 to i64
  %66 = and i64 %65, 1
  %.not33 = icmp eq i64 %66, 0
  br i1 %.not33, label %67, label %lean_dec.exit14

67:                                               ; preds = %lean_dec.exit15
  %68 = load i32, ptr %1, align 4, !tbaa !8
  %69 = icmp sgt i32 %68, 1
  br i1 %69, label %70, label %72, !prof !11

70:                                               ; preds = %67
  %71 = add nsw i32 %68, -1
  store i32 %71, ptr %1, align 4, !tbaa !8
  br label %lean_dec.exit14

72:                                               ; preds = %67
  %.not.i25 = icmp eq i32 %68, 0
  br i1 %.not.i25, label %lean_dec.exit14, label %73

73:                                               ; preds = %72
  tail call void @lean_dec_ref_cold(ptr noundef nonnull %1) #5
  br label %lean_dec.exit14

lean_dec.exit14:                                  ; preds = %73, %72, %70, %lean_dec.exit15
  %74 = ptrtoint ptr %0 to i64
  %75 = and i64 %74, 1
  %.not34 = icmp eq i64 %75, 0
  br i1 %.not34, label %76, label %lean_dec.exit

76:                                               ; preds = %lean_dec.exit14
  %77 = load i32, ptr %0, align 4, !tbaa !8
  %78 = icmp sgt i32 %77, 1
  br i1 %78, label %79, label %81, !prof !11

79:                                               ; preds = %76
  %80 = add nsw i32 %77, -1
  store i32 %80, ptr %0, align 4, !tbaa !8
  br label %lean_dec.exit

81:                                               ; preds = %76
  %.not.i27 = icmp eq i32 %77, 0
  br i1 %.not.i27, label %lean_dec.exit, label %82

82:                                               ; preds = %81
  tail call void @lean_dec_ref_cold(ptr noundef nonnull %0) #5
  br label %lean_dec.exit

lean_dec.exit:                                    ; preds = %82, %81, %79, %lean_dec.exit14
  ret ptr %28
}